Certificate:
    Data:
        Version: 3 (0x2)
        Serial Number: 1 (0x1)
    Signature Algorithm: sha256WithRSAEncryption
        Issuer: C=KE, ST=NAIROBI, L=NAIROBI, O=SOCIALMEDIAMANAGER, OU=SOFTWAREDEVELOPERS, CN=Neville/emailAddress=nevillekitala@gmail.com
        Validity
            Not Before: Aug 18 10:37:40 2018 GMT
            Not After : May 14 10:37:40 2021 GMT
        Subject: C=KE, ST=NAIROBI, L=NAIROBI, O=SOCIALMEDIAMANAGER, CN=127.0.0.1
        Subject Public Key Info:
            Public Key Algorithm: rsaEncryption
                Public-Key: (2048 bit)
                Modulus:
                    00:cd:cb:89:3f:a0:9f:e4:45:6e:54:62:26:de:27:
                    34:ef:ae:f1:62:ee:82:f1:e9:05:d6:75:ff:ea:a0:
                    88:2f:13:4a:74:c0:77:bf:5f:f2:61:c9:1f:af:72:
                    b7:4e:26:68:cf:5b:3b:f9:be:43:67:29:cc:58:4a:
                    15:38:5e:1b:7e:56:a3:2a:10:ac:24:1e:d7:26:bd:
                    16:27:56:00:88:e8:9a:a4:c9:34:cb:64:d5:be:99:
                    0b:a3:25:41:6d:d3:65:bc:d2:5e:dd:c8:07:52:3c:
                    28:0a:9e:fb:a7:be:52:c6:9d:e0:57:5e:40:bb:ec:
                    65:6f:b7:3e:56:06:94:1f:f9:7f:54:9d:d6:22:1b:
                    8a:2d:c6:d9:99:14:f6:95:ab:7d:46:89:99:95:08:
                    6c:5a:f4:c4:01:8f:8e:aa:3c:be:90:25:b4:11:08:
                    a0:09:e1:e9:15:9c:6e:c8:86:40:8f:3e:46:4c:29:
                    a1:80:3a:ed:68:d0:09:f3:a8:31:17:83:b8:47:62:
                    fc:b6:79:79:f9:f2:b3:ff:3a:2b:ca:12:23:41:74:
                    de:2c:0c:7b:0e:20:ff:3b:f8:ee:28:3b:e9:aa:d8:
                    ef:c5:f0:1a:bf:c3:a0:10:81:0e:90:80:a2:b5:71:
                    27:27:55:07:60:67:ec:e3:b6:bd:5f:71:fc:5f:12:
                    56:75
                Exponent: 65537 (0x10001)
        X509v3 extensions:
            X509v3 Subject Key Identifier: 
                A8:51:09:73:C5:62:4C:DB:86:23:96:0F:38:0D:37:5E:EE:23:70:52
            X509v3 Authority Key Identifier: 
                keyid:6A:27:0B:71:BE:F5:A4:9D:87:20:36:49:87:76:FA:D3:1F:90:7B:B5

            X509v3 Basic Constraints: 
                CA:FALSE
            X509v3 Key Usage: 
                Digital Signature, Key Encipherment
            X509v3 Subject Alternative Name: 
                DNS:example.com, DNS:www.example.com, DNS:mail.example.com, DNS:ftp.example.com
            Netscape Comment: 
                OpenSSL Generated Certificate
    Signature Algorithm: sha256WithRSAEncryption
         53:93:59:65:55:67:17:80:cc:ba:1a:3e:df:45:6e:ca:56:05:
         f8:f1:7b:bf:ca:ea:88:af:05:62:cd:c0:e4:d1:15:52:a8:f4:
         5e:3b:cc:3b:5a:f5:34:89:63:ee:2f:80:92:cc:e2:eb:d8:24:
         56:74:29:1b:92:cf:31:48:e9:e4:b9:d4:e2:1e:be:8d:e9:7a:
         56:23:fe:a1:4b:a5:46:bf:c4:7d:49:43:7f:9a:1a:c4:7e:ed:
         e7:fc:8c:b6:7d:2e:5e:4d:f7:5f:4d:6e:1a:e5:61:92:b0:52:
         41:e1:7f:4f:dd:5a:92:95:2a:be:b3:0a:9c:f5:9b:28:c0:f0:
         13:91:73:d4:9e:68:cd:5e:b1:25:95:20:a9:a3:18:74:a6:6e:
         94:fe:cf:bc:f5:63:74:ae:0c:d9:c6:bf:43:9e:f5:f5:5a:27:
         b6:a1:df:7a:64:58:40:0e:27:56:b8:cf:95:19:63:7b:cd:24:
         af:9b:95:46:6b:23:eb:84:55:f7:b3:90:1e:f2:58:fd:7f:cf:
         a1:33:0d:70:84:f3:d1:09:22:3c:28:cd:8f:98:4a:91:9b:b4:
         8b:3f:22:29:63:71:5f:49:16:c3:ed:d9:62:25:62:ef:7e:e8:
         91:3f:5a:87:e8:78:09:2a:f9:c6:09:ba:7e:c1:6c:91:b2:4b:
         54:3e:88:84:82:1c:aa:c6:cd:84:96:b6:60:55:29:9b:43:ef:
         7d:99:cc:35:9f:5c:b2:48:99:35:c6:9e:5b:bf:4e:9f:46:32:
         df:58:fd:bd:41:1b:10:a8:cd:ed:bf:f4:10:5d:e5:12:5f:bf:
         5c:01:5f:5d:07:0d:93:82:89:9f:30:6f:2d:66:5c:48:b8:af:
         44:d7:80:e4:d8:d4:d4:0e:f3:45:fc:02:1c:6a:2f:37:13:0d:
         99:af:d6:e9:d9:59:a5:dd:fa:9b:f7:48:1e:3d:df:a7:6e:97:
         a4:10:56:d1:7e:1f:07:22:77:ff:72:3e:61:e7:c3:84:5c:68:
         51:c8:54:8a:ee:72:27:cf:cb:a2:ea:fd:88:c9:0a:8b:e8:9d:
         a9:40:f2:46:50:98:b1:10:37:96:f4:db:67:4f:84:20:20:37:
         78:43:c6:c5:be:ec:05:9c:ec:73:9d:7a:41:b9:1f:dc:bb:b6:
         48:56:ca:f0:cb:45:d1:29:4b:6a:d3:75:66:80:be:ca:fe:15:
         cc:4d:fe:03:26:e6:f5:37:c1:45:88:fc:c9:f9:05:98:cb:e6:
         20:4f:d5:5d:f3:fb:6f:2c:77:95:07:eb:3e:37:aa:93:1b:6c:
         98:b9:0a:e5:9b:aa:d5:b5:59:89:c1:6f:fa:4f:b4:a2:e8:f9:
         06:e5:aa:b3:7c:f3:ee:73
-----BEGIN CERTIFICATE-----
MIIFWTCCA0GgAwIBAgIBATANBgkqhkiG9w0BAQsFADCBpTELMAkGA1UEBhMCS0Ux
EDAOBgNVBAgMB05BSVJPQkkxEDAOBgNVBAcMB05BSVJPQkkxGzAZBgNVBAoMElNP
Q0lBTE1FRElBTUFOQUdFUjEbMBkGA1UECwwSU09GVFdBUkVERVZFTE9QRVJTMRAw
DgYDVQQDDAdOZXZpbGxlMSYwJAYJKoZIhvcNAQkBFhduZXZpbGxla2l0YWxhQGdt
YWlsLmNvbTAeFw0xODA4MTgxMDM3NDBaFw0yMTA1MTQxMDM3NDBaMGIxCzAJBgNV
BAYTAktFMRAwDgYDVQQIDAdOQUlST0JJMRAwDgYDVQQHDAdOQUlST0JJMRswGQYD
VQQKDBJTT0NJQUxNRURJQU1BTkFHRVIxEjAQBgNVBAMMCTEyNy4wLjAuMTCCASIw
DQYJKoZIhvcNAQEBBQADggEPADCCAQoCggEBAM3LiT+gn+RFblRiJt4nNO+u8WLu
gvHpBdZ1/+qgiC8TSnTAd79f8mHJH69yt04maM9bO/m+Q2cpzFhKFTheG35WoyoQ
rCQe1ya9FidWAIjomqTJNMtk1b6ZC6MlQW3TZbzSXt3IB1I8KAqe+6e+Usad4Fde
QLvsZW+3PlYGlB/5f1Sd1iIbii3G2ZkU9pWrfUaJmZUIbFr0xAGPjqo8vpAltBEI
oAnh6RWcbsiGQI8+RkwpoYA67WjQCfOoMReDuEdi/LZ5efnys/86K8oSI0F03iwM
ew4g/zv47ig76arY78XwGr/DoBCBDpCAorVxJydVB2Bn7OO2vV9x/F8SVnUCAwEA
AaOB1TCB0jAdBgNVHQ4EFgQUqFEJc8ViTNuGI5YPOA03Xu4jcFIwHwYDVR0jBBgw
FoAUaicLcb71pJ2HIDZJh3b60x+Qe7UwCQYDVR0TBAIwADALBgNVHQ8EBAMCBaAw
SgYDVR0RBEMwQYILZXhhbXBsZS5jb22CD3d3dy5leGFtcGxlLmNvbYIQbWFpbC5l
eGFtcGxlLmNvbYIPZnRwLmV4YW1wbGUuY29tMCwGCWCGSAGG+EIBDQQfFh1PcGVu
U1NMIEdlbmVyYXRlZCBDZXJ0aWZpY2F0ZTANBgkqhkiG9w0BAQsFAAOCAgEAU5NZ
ZVVnF4DMuho+30VuylYF+PF7v8rqiK8FYs3A5NEVUqj0XjvMO1r1NIlj7i+Akszi
69gkVnQpG5LPMUjp5LnU4h6+jel6ViP+oUulRr/EfUlDf5oaxH7t5/yMtn0uXk33
X01uGuVhkrBSQeF/T91akpUqvrMKnPWbKMDwE5Fz1J5ozV6xJZUgqaMYdKZulP7P
vPVjdK4M2ca/Q5719VontqHfemRYQA4nVrjPlRlje80kr5uVRmsj64RV97OQHvJY
/X/PoTMNcITz0QkiPCjNj5hKkZu0iz8iKWNxX0kWw+3ZYiVi737okT9ah+h4CSr5
xgm6fsFskbJLVD6IhIIcqsbNhJa2YFUpm0PvfZnMNZ9cskiZNcaeW79On0Yy31j9
vUEbEKjN7b/0EF3lEl+/XAFfXQcNk4KJnzBvLWZcSLivRNeA5NjU1A7zRfwCHGov
NxMNma/W6dlZpd36m/dIHj3fp26XpBBW0X4fByJ3/3I+YefDhFxoUchUiu5yJ8/L
our9iMkKi+idqUDyRlCYsRA3lvTbZ0+EICA3eEPGxb7sBZzsc516Qbkf3Lu2SFbK
8MtF0SlLatN1ZoC+yv4VzE3+Aybm9TfBRYj8yfkFmMvmIE/VXfP7byx3lQfrPjeq
kxtsmLkK5Zuq1bVZicFv+k+0ouj5BuWqs3zz7nM=
-----END CERTIFICATE-----
